; Function Attrs: mustprogress uwtable
define noundef nonnull align 4 dereferenceable(4) ptr @_ZN7Imf_3_48latitudeERNS_6HeaderE(ptr noundef nonnull align 8 dereferenceable(49) %0) local_unnamed_addr #3 personality ptr @__gxx_personality_v0 {
  %2 = tail call noundef nonnull align 8 dereferenceable(8) ptr @_ZN7Imf_3_46HeaderixEPKc(ptr noundef nonnull align 8 dereferenceable(49) %0, ptr noundef nonnull @.str.10)
  %3 = tail call ptr @__dynamic_cast(ptr nonnull %2, ptr nonnull @_ZTIN7Imf_3_49AttributeE, ptr nonnull @_ZTIN7Imf_3_414TypedAttributeIfEE, i64 0) #11
  %4 = icmp eq ptr %3, null
  br i1 %4, label %5, label %_ZN7Imf_3_417latitudeAttributeERNS_6HeaderE.exit

5:                                                ; preds = %1
  %6 = tail call ptr @__cxa_allocate_exception(i64 72) #11
  invoke void @_ZN7Iex_3_47TypeExcC1EPKc(ptr noundef nonnull align 8 dereferenceable(72) %6, ptr noundef nonnull @.str.56)
          to label %7 unwind label %8

7:                                                ; preds = %5
  tail call void @__cxa_throw(ptr nonnull %6, ptr nonnull @_ZTIN7Iex_3_47TypeExcE, ptr nonnull @_ZN7Iex_3_47TypeExcD1Ev) #13
  unreachable

8:                                                ; preds = %5
  %9 = landingpad { ptr, i32 }
          cleanup
  tail call void @__cxa_free_exception(ptr nonnull %6) #11
  resume { ptr, i32 } %9

_ZN7Imf_3_417latitudeAttributeERNS_6HeaderE.exit: ; preds = %1
  %10 = getelementptr inbounds nuw i8, ptr %3, i64 8
  ret ptr %10
}